target datalayout = "e-m:e-p270:32:32-p271:32:32-p272:64:64-i64:64-i128:128-f80:128-n8:16:32:64-S128"
target triple = "x86_64-pc-linux-gnu"

%struct.png_struct_def = type { [1 x %struct.__jmp_buf_tag], ptr, ptr, i64, ptr, ptr, ptr, ptr, ptr, ptr, ptr, ptr, ptr, i8, i8, i32, i32, i32, i32, %struct.z_stream_s, ptr, i32, i32, i32, i32, i32, i32, i32, i32, i32, i32, i32, i32, i32, i32, i32, i32, i32, i32, i32, i32, i32, i64, i32, i32, i32, ptr, ptr, ptr, ptr, i64, i32, i32, ptr, i16, i32, i16, i8, i8, i8, i8, i8, i8, i8, i8, i8, i8, i8, i8, i8, i8, i8, i16, i8, i32, %struct.png_color_16_struct, %struct.png_color_16_struct, ptr, i32, i32, %struct.png_xy, i32, i32, i32, i32, i32, ptr, ptr, ptr, ptr, ptr, ptr, %struct.png_color_8_struct, %struct.png_color_8_struct, ptr, %struct.png_color_16_struct, ptr, ptr, ptr, ptr, ptr, ptr, ptr, ptr, ptr, i32, i32, i64, i64, i64, i64, i32, i32, ptr, ptr, i32, [29 x i8], i32, ptr, ptr, i32, i32, ptr, i8, i8, i16, i16, ptr, i32, i8, ptr, ptr, ptr, ptr, ptr, ptr, ptr, i8, i32, i32, i32, i64, %struct.png_unknown_chunk_t, i64, ptr, i64, i32, i32, ptr, [4 x ptr] }
%struct.__jmp_buf_tag = type { [8 x i64], i32, %struct.__sigset_t }
%struct.__sigset_t = type { [16 x i64] }
%struct.z_stream_s = type { ptr, i32, i64, ptr, i32, i64, ptr, ptr, ptr, ptr, ptr, i32, i64, i64 }
%struct.png_xy = type { i32, i32, i32, i32, i32, i32, i32, i32 }
%struct.png_color_8_struct = type { i8, i8, i8, i8, i8 }
%struct.png_color_16_struct = type { i8, i16, i16, i16, i16 }
%struct.png_unknown_chunk_t = type { [5 x i8], ptr, i64, i8 }

; Function Attrs: nounwind uwtable
define internal i64 @png_image_size(ptr noalias noundef %0) #0 {
  %2 = alloca i64, align 8
  %3 = alloca ptr, align 8
  %4 = alloca i32, align 4
  %5 = alloca i32, align 4
  %6 = alloca i32, align 4
  %7 = alloca i64, align 8
  %8 = alloca i32, align 4
  %9 = alloca i32, align 4
  %10 = alloca i32, align 4
  store ptr %0, ptr %3, align 8, !tbaa !11
  call void @llvm.lifetime.start.p0(i64 4, ptr %4) #7
  %11 = load ptr, ptr %3, align 8, !tbaa !11
  %12 = getelementptr inbounds nuw %struct.png_struct_def, ptr %11, i32 0, i32 39
  %13 = load i32, ptr %12, align 8, !tbaa !47
  store i32 %13, ptr %4, align 4, !tbaa !8
  %14 = load ptr, ptr %3, align 8, !tbaa !11
  %15 = getelementptr inbounds nuw %struct.png_struct_def, ptr %14, i32 0, i32 42
  %16 = load i64, ptr %15, align 8, !tbaa !49
  %17 = icmp ult i64 %16, 32768
  br i1 %17, label %18, label %144

18:                                               ; preds = %1
  %19 = load i32, ptr %4, align 4, !tbaa !8
  %20 = icmp ult i32 %19, 32768
  br i1 %20, label %21, label %144

21:                                               ; preds = %18
  %22 = load ptr, ptr %3, align 8, !tbaa !11
  %23 = getelementptr inbounds nuw %struct.png_struct_def, ptr %22, i32 0, i32 59
  %24 = load i8, ptr %23, align 4, !tbaa !43
  %25 = zext i8 %24 to i32
  %26 = icmp ne i32 %25, 0
  br i1 %26, label %27, label %136

27:                                               ; preds = %21
  call void @llvm.lifetime.start.p0(i64 4, ptr %5) #7
  %28 = load ptr, ptr %3, align 8, !tbaa !11
  %29 = getelementptr inbounds nuw %struct.png_struct_def, ptr %28, i32 0, i32 38
  %30 = load i32, ptr %29, align 4, !tbaa !46
  store i32 %30, ptr %5, align 4, !tbaa !8
  call void @llvm.lifetime.start.p0(i64 4, ptr %6) #7
  %31 = load ptr, ptr %3, align 8, !tbaa !11
  %32 = getelementptr inbounds nuw %struct.png_struct_def, ptr %31, i32 0, i32 65
  %33 = load i8, ptr %32, align 2, !tbaa !48
  %34 = zext i8 %33 to i32
  store i32 %34, ptr %6, align 4, !tbaa !8
  call void @llvm.lifetime.start.p0(i64 8, ptr %7) #7
  call void @llvm.lifetime.start.p0(i64 4, ptr %8) #7
  store i64 0, ptr %7, align 8, !tbaa !30
  store i32 0, ptr %8, align 4, !tbaa !8
  br label %35

35:                                               ; preds = %131, %27
  %36 = load i32, ptr %8, align 4, !tbaa !8
  %37 = icmp sle i32 %36, 6
  br i1 %37, label %38, label %134

38:                                               ; preds = %35
  call void @llvm.lifetime.start.p0(i64 4, ptr %9) #7
  %39 = load i32, ptr %5, align 4, !tbaa !8
  %40 = load i32, ptr %8, align 4, !tbaa !8
  %41 = icmp sgt i32 %40, 1
  br i1 %41, label %42, label %46

42:                                               ; preds = %38
  %43 = load i32, ptr %8, align 4, !tbaa !8
  %44 = sub nsw i32 7, %43
  %45 = ashr i32 %44, 1
  br label %47

46:                                               ; preds = %38
  br label %47

47:                                               ; preds = %46, %42
  %48 = phi i32 [ %45, %42 ], [ 3, %46 ]
  %49 = shl i32 1, %48
  %50 = sub nsw i32 %49, 1
  %51 = load i32, ptr %8, align 4, !tbaa !8
  %52 = and i32 1, %51
  %53 = load i32, ptr %8, align 4, !tbaa !8
  %54 = add nsw i32 %53, 1
  %55 = ashr i32 %54, 1
  %56 = sub nsw i32 3, %55
  %57 = shl i32 %52, %56
  %58 = and i32 %57, 7
  %59 = sub nsw i32 %50, %58
  %60 = add i32 %39, %59
  %61 = load i32, ptr %8, align 4, !tbaa !8
  %62 = icmp sgt i32 %61, 1
  br i1 %62, label %63, label %67

63:                                               ; preds = %47
  %64 = load i32, ptr %8, align 4, !tbaa !8
  %65 = sub nsw i32 7, %64
  %66 = ashr i32 %65, 1
  br label %68

67:                                               ; preds = %47
  br label %68

68:                                               ; preds = %67, %63
  %69 = phi i32 [ %66, %63 ], [ 3, %67 ]
  %70 = lshr i32 %60, %69
  store i32 %70, ptr %9, align 4, !tbaa !8
  %71 = load i32, ptr %9, align 4, !tbaa !8
  %72 = icmp ugt i32 %71, 0
  br i1 %72, label %73, label %130

73:                                               ; preds = %68
  %74 = load i32, ptr %6, align 4, !tbaa !8
  %75 = icmp uge i32 %74, 8
  br i1 %75, label %76, label %83

76:                                               ; preds = %73
  %77 = load i32, ptr %9, align 4, !tbaa !8
  %78 = zext i32 %77 to i64
  %79 = load i32, ptr %6, align 4, !tbaa !8
  %80 = zext i32 %79 to i64
  %81 = lshr i64 %80, 3
  %82 = mul i64 %78, %81
  br label %91

83:                                               ; preds = %73
  %84 = load i32, ptr %9, align 4, !tbaa !8
  %85 = zext i32 %84 to i64
  %86 = load i32, ptr %6, align 4, !tbaa !8
  %87 = zext i32 %86 to i64
  %88 = mul i64 %85, %87
  %89 = add i64 %88, 7
  %90 = lshr i64 %89, 3
  br label %91

91:                                               ; preds = %83, %76
  %92 = phi i64 [ %82, %76 ], [ %90, %83 ]
  %93 = add i64 %92, 1
  %94 = load i32, ptr %4, align 4, !tbaa !8
  %95 = load i32, ptr %8, align 4, !tbaa !8
  %96 = icmp sgt i32 %95, 2
  br i1 %96, label %97, label %101

97:                                               ; preds = %91
  %98 = load i32, ptr %8, align 4, !tbaa !8
  %99 = sub nsw i32 8, %98
  %100 = ashr i32 %99, 1
  br label %102

101:                                              ; preds = %91
  br label %102

102:                                              ; preds = %101, %97
  %103 = phi i32 [ %100, %97 ], [ 3, %101 ]
  %104 = shl i32 1, %103
  %105 = sub nsw i32 %104, 1
  %106 = load i32, ptr %8, align 4, !tbaa !8
  %107 = xor i32 %106, -1
  %108 = and i32 1, %107
  %109 = load i32, ptr %8, align 4, !tbaa !8
  %110 = ashr i32 %109, 1
  %111 = sub nsw i32 3, %110
  %112 = shl i32 %108, %111
  %113 = and i32 %112, 7
  %114 = sub nsw i32 %105, %113
  %115 = add i32 %94, %114
  %116 = load i32, ptr %8, align 4, !tbaa !8
  %117 = icmp sgt i32 %116, 2
  br i1 %117, label %118, label %122

118:                                              ; preds = %102
  %119 = load i32, ptr %8, align 4, !tbaa !8
  %120 = sub nsw i32 8, %119
  %121 = ashr i32 %120, 1
  br label %123

122:                                              ; preds = %102
  br label %123

123:                                              ; preds = %122, %118
  %124 = phi i32 [ %121, %118 ], [ 3, %122 ]
  %125 = lshr i32 %115, %124
  %126 = zext i32 %125 to i64
  %127 = mul i64 %93, %126
  %128 = load i64, ptr %7, align 8, !tbaa !30
  %129 = add i64 %128, %127
  store i64 %129, ptr %7, align 8, !tbaa !30
  br label %130

130:                                              ; preds = %123, %68
  call void @llvm.lifetime.end.p0(i64 4, ptr %9) #7
  br label %131

131:                                              ; preds = %130
  %132 = load i32, ptr %8, align 4, !tbaa !8
  %133 = add nsw i32 %132, 1
  store i32 %133, ptr %8, align 4, !tbaa !8
  br label %35, !llvm.loop !86

134:                                              ; preds = %35
  %135 = load i64, ptr %7, align 8, !tbaa !30
  store i64 %135, ptr %2, align 8
  store i32 1, ptr %10, align 4
  call void @llvm.lifetime.end.p0(i64 4, ptr %8) #7
  call void @llvm.lifetime.end.p0(i64 8, ptr %7) #7
  call void @llvm.lifetime.end.p0(i64 4, ptr %6) #7
  call void @llvm.lifetime.end.p0(i64 4, ptr %5) #7
  br label %145

136:                                              ; preds = %21
  %137 = load ptr, ptr %3, align 8, !tbaa !11
  %138 = getelementptr inbounds nuw %struct.png_struct_def, ptr %137, i32 0, i32 42
  %139 = load i64, ptr %138, align 8, !tbaa !49
  %140 = add i64 %139, 1
  %141 = load i32, ptr %4, align 4, !tbaa !8
  %142 = zext i32 %141 to i64
  %143 = mul i64 %140, %142
  store i64 %143, ptr %2, align 8
  store i32 1, ptr %10, align 4
  br label %145

144:                                              ; preds = %18, %1
  store i64 4294967295, ptr %2, align 8
  store i32 1, ptr %10, align 4
  br label %145

145:                                              ; preds = %144, %136, %134
  call void @llvm.lifetime.end.p0(i64 4, ptr %4) #7
  %146 = load i64, ptr %2, align 8
  ret i64 %146
}